target datalayout = "e-m:e-p270:32:32-p271:32:32-p272:64:64-i64:64-i128:128-f80:128-n8:16:32:64-S128"
target triple = "x86_64-pc-linux-gnu"

%"class.boost::archive::class_id_type" = type { i16 }
%"class.boost::archive::version_type" = type { i32 }
%"class.boost::archive::detail::basic_iarchive_impl" = type { %"class.boost::serialization::library_version_type", i32, %"class.std::vector", %"struct.boost::archive::detail::basic_iarchive_impl::moveable_objects", %"class.std::set", %"class.std::vector.3", %"struct.boost::archive::detail::basic_iarchive_impl::pending" }
%"class.boost::serialization::library_version_type" = type { i16 }
%"class.std::vector" = type { %"struct.std::_Vector_base" }
%"struct.std::_Vector_base" = type { %"struct.std::_Vector_base<boost::archive::detail::basic_iarchive_impl::aobject, std::allocator<boost::archive::detail::basic_iarchive_impl::aobject>>::_Vector_impl" }
%"struct.std::_Vector_base<boost::archive::detail::basic_iarchive_impl::aobject, std::allocator<boost::archive::detail::basic_iarchive_impl::aobject>>::_Vector_impl" = type { %"struct.std::_Vector_base<boost::archive::detail::basic_iarchive_impl::aobject, std::allocator<boost::archive::detail::basic_iarchive_impl::aobject>>::_Vector_impl_data" }
%"struct.std::_Vector_base<boost::archive::detail::basic_iarchive_impl::aobject, std::allocator<boost::archive::detail::basic_iarchive_impl::aobject>>::_Vector_impl_data" = type { ptr, ptr, ptr }
%"struct.boost::archive::detail::basic_iarchive_impl::moveable_objects" = type <{ %"class.boost::archive::object_id_type", %"class.boost::archive::object_id_type", %"class.boost::archive::object_id_type", i8, [3 x i8] }>
%"class.boost::archive::object_id_type" = type { i32 }
%"class.std::set" = type { %"class.std::_Rb_tree" }
%"class.std::_Rb_tree" = type { %"struct.std::_Rb_tree<boost::archive::detail::basic_iarchive_impl::cobject_type, boost::archive::detail::basic_iarchive_impl::cobject_type, std::_Identity<boost::archive::detail::basic_iarchive_impl::cobject_type>, std::less<boost::archive::detail::basic_iarchive_impl::cobject_type>>::_Rb_tree_impl" }
%"struct.std::_Rb_tree<boost::archive::detail::basic_iarchive_impl::cobject_type, boost::archive::detail::basic_iarchive_impl::cobject_type, std::_Identity<boost::archive::detail::basic_iarchive_impl::cobject_type>, std::less<boost::archive::detail::basic_iarchive_impl::cobject_type>>::_Rb_tree_impl" = type { [8 x i8], %"struct.std::_Rb_tree_header" }
%"struct.std::_Rb_tree_header" = type { %"struct.std::_Rb_tree_node_base", i64 }
%"struct.std::_Rb_tree_node_base" = type { i32, ptr, ptr, ptr }
%"class.std::vector.3" = type { %"struct.std::_Vector_base.4" }
%"struct.std::_Vector_base.4" = type { %"struct.std::_Vector_base<boost::archive::detail::basic_iarchive_impl::cobject_id, std::allocator<boost::archive::detail::basic_iarchive_impl::cobject_id>>::_Vector_impl" }
%"struct.std::_Vector_base<boost::archive::detail::basic_iarchive_impl::cobject_id, std::allocator<boost::archive::detail::basic_iarchive_impl::cobject_id>>::_Vector_impl" = type { %"struct.std::_Vector_base<boost::archive::detail::basic_iarchive_impl::cobject_id, std::allocator<boost::archive::detail::basic_iarchive_impl::cobject_id>>::_Vector_impl_data" }
%"struct.std::_Vector_base<boost::archive::detail::basic_iarchive_impl::cobject_id, std::allocator<boost::archive::detail::basic_iarchive_impl::cobject_id>>::_Vector_impl_data" = type { ptr, ptr, ptr }
%"struct.boost::archive::detail::basic_iarchive_impl::pending" = type <{ ptr, ptr, %"class.boost::archive::version_type", [4 x i8] }>
%"struct.boost::archive::detail::basic_iarchive_impl::aobject" = type <{ ptr, i8, i8, %"class.boost::archive::class_id_type", [4 x i8] }>
%"class.boost::archive::detail::basic_iarchive" = type { ptr, %"class.boost::archive::detail::helper_collection", %"class.boost::scoped_ptr" }
%"class.boost::archive::detail::helper_collection" = type { %"class.std::vector.8" }
%"class.std::vector.8" = type { %"struct.std::_Vector_base.9" }
%"struct.std::_Vector_base.9" = type { %"struct.std::_Vector_base<std::pair<const void *, boost::shared_ptr<void>>, std::allocator<std::pair<const void *, boost::shared_ptr<void>>>>::_Vector_impl" }
%"struct.std::_Vector_base<std::pair<const void *, boost::shared_ptr<void>>, std::allocator<std::pair<const void *, boost::shared_ptr<void>>>>::_Vector_impl" = type { %"struct.std::_Vector_base<std::pair<const void *, boost::shared_ptr<void>>, std::allocator<std::pair<const void *, boost::shared_ptr<void>>>>::_Vector_impl_data" }
%"struct.std::_Vector_base<std::pair<const void *, boost::shared_ptr<void>>, std::allocator<std::pair<const void *, boost::shared_ptr<void>>>>::_Vector_impl_data" = type { ptr, ptr, ptr }
%"class.boost::scoped_ptr" = type { ptr }

; Function Attrs: mustprogress nounwind uwtable
define linkonce_odr hidden noundef nonnull align 8 dereferenceable(12) ptr @_ZNSt6vectorIN5boost7archive6detail19basic_iarchive_impl7aobjectESaIS4_EEixEm(ptr noundef nonnull align 8 dereferenceable(24) %0, i64 noundef %1) #2 comdat align 2 {
  %3 = alloca ptr, align 8
  %4 = alloca i64, align 8
  store ptr %0, ptr %3, align 8, !tbaa !3
  store i64 %1, ptr %4, align 8, !tbaa !48
  %5 = load ptr, ptr %3, align 8
  %6 = getelementptr inbounds nuw %"struct.std::_Vector_base", ptr %5, i32 0, i32 0
  %7 = getelementptr inbounds nuw %"struct.std::_Vector_base<boost::archive::detail::basic_iarchive_impl::aobject, std::allocator<boost::archive::detail::basic_iarchive_impl::aobject>>::_Vector_impl_data", ptr %6, i32 0, i32 0
  %8 = load ptr, ptr %7, align 8, !tbaa !53
  %9 = load i64, ptr %4, align 8, !tbaa !48
  %10 = getelementptr inbounds nuw %"struct.boost::archive::detail::basic_iarchive_impl::aobject", ptr %8, i64 %9
  ret ptr %10
}

; Function Attrs: mustprogress nounwind uwtable
define linkonce_odr hidden noundef nonnull align 4 dereferenceable(4) ptr @_ZN5boost7archive14object_id_typecvRjEv(ptr noundef nonnull align 4 dereferenceable(4) %0) #2 comdat align 2 {
  %2 = alloca ptr, align 8
  store ptr %0, ptr %2, align 8, !tbaa !3
  %3 = load ptr, ptr %2, align 8
  %4 = getelementptr inbounds nuw %"class.boost::archive::object_id_type", ptr %3, i32 0, i32 0
  ret ptr %4
}

; Function Attrs: mustprogress nounwind uwtable
define linkonce_odr hidden noundef zeroext i1 @_ZNK5boost7archive14object_id_typeltERKS1_(ptr noundef nonnull align 4 dereferenceable(4) %0, ptr noundef nonnull align 4 dereferenceable(4) %1) #2 comdat align 2 {
  %3 = alloca ptr, align 8
  %4 = alloca ptr, align 8
  store ptr %0, ptr %3, align 8, !tbaa !3
  store ptr %1, ptr %4, align 8, !tbaa !3
  %5 = load ptr, ptr %3, align 8
  %6 = getelementptr inbounds nuw %"class.boost::archive::object_id_type", ptr %5, i32 0, i32 0
  %7 = load i32, ptr %6, align 4, !tbaa !51
  %8 = load ptr, ptr %4, align 8, !tbaa !3
  %9 = getelementptr inbounds nuw %"class.boost::archive::object_id_type", ptr %8, i32 0, i32 0
  %10 = load i32, ptr %9, align 4, !tbaa !51
  %11 = icmp ult i32 %7, %10
  ret i1 %11
}

; Function Attrs: mustprogress nounwind uwtable
define linkonce_odr hidden void @_ZN5boost7archive14object_id_typeC2ERKS1_(ptr noundef nonnull align 4 dereferenceable(4) %0, ptr noundef nonnull align 4 dereferenceable(4) %1) unnamed_addr #2 comdat align 2 {
  %3 = alloca ptr, align 8
  %4 = alloca ptr, align 8
  store ptr %0, ptr %3, align 8, !tbaa !3
  store ptr %1, ptr %4, align 8, !tbaa !3
  %5 = load ptr, ptr %3, align 8
  %6 = getelementptr inbounds nuw %"class.boost::archive::object_id_type", ptr %5, i32 0, i32 0
  %7 = load ptr, ptr %4, align 8, !tbaa !3
  %8 = getelementptr inbounds nuw %"class.boost::archive::object_id_type", ptr %7, i32 0, i32 0
  %9 = load i32, ptr %8, align 4, !tbaa !51
  store i32 %9, ptr %6, align 4, !tbaa !51
  ret void
}

; Function Attrs: inlinehint mustprogress uwtable
define linkonce_odr hidden void @_ZN5boost7archive6detail19basic_iarchive_impl20reset_object_addressEPKvS4_(ptr noundef nonnull align 8 dereferenceable(144) %0, ptr noundef %1, ptr noundef %2) #6 comdat align 2 {
  %4 = alloca ptr, align 8
  %5 = alloca ptr, align 8
  %6 = alloca ptr, align 8
  %7 = alloca %"class.boost::archive::object_id_type", align 4
  %8 = alloca ptr, align 8
  %9 = alloca i32, align 4
  %10 = alloca ptr, align 8
  %11 = alloca i64, align 8
  %12 = alloca i64, align 8
  store ptr %0, ptr %4, align 8, !tbaa !3
  store ptr %1, ptr %5, align 8, !tbaa !3
  store ptr %2, ptr %6, align 8, !tbaa !3
  %13 = load ptr, ptr %4, align 8
  %14 = getelementptr inbounds nuw %"class.boost::archive::detail::basic_iarchive_impl", ptr %13, i32 0, i32 3
  %15 = getelementptr inbounds nuw %"struct.boost::archive::detail::basic_iarchive_impl::moveable_objects", ptr %14, i32 0, i32 3
  %16 = load i8, ptr %15, align 4, !tbaa !58, !range !13, !noundef !14
  %17 = trunc i8 %16 to i1
  br i1 %17, label %18, label %19

18:                                               ; preds = %3
  br label %108

19:                                               ; preds = %3
  call void @llvm.lifetime.start.p0(i64 4, ptr %7) #16
  %20 = getelementptr inbounds nuw %"class.boost::archive::detail::basic_iarchive_impl", ptr %13, i32 0, i32 3
  %21 = getelementptr inbounds nuw %"struct.boost::archive::detail::basic_iarchive_impl::moveable_objects", ptr %20, i32 0, i32 2
  call void @_ZN5boost7archive14object_id_typeC2ERKS1_(ptr noundef nonnull align 4 dereferenceable(4) %7, ptr noundef nonnull align 4 dereferenceable(4) %21)
  br label %22

22:                                               ; preds = %38, %19
  %23 = getelementptr inbounds nuw %"class.boost::archive::detail::basic_iarchive_impl", ptr %13, i32 0, i32 3
  %24 = getelementptr inbounds nuw %"struct.boost::archive::detail::basic_iarchive_impl::moveable_objects", ptr %23, i32 0, i32 1
  %25 = call noundef zeroext i1 @_ZNK5boost7archive14object_id_typeltERKS1_(ptr noundef nonnull align 4 dereferenceable(4) %7, ptr noundef nonnull align 4 dereferenceable(4) %24)
  br i1 %25, label %26, label %42

26:                                               ; preds = %22
  %27 = load ptr, ptr %6, align 8, !tbaa !3
  %28 = getelementptr inbounds nuw %"class.boost::archive::detail::basic_iarchive_impl", ptr %13, i32 0, i32 2
  %29 = call noundef nonnull align 4 dereferenceable(4) ptr @_ZN5boost7archive14object_id_typecvRjEv(ptr noundef nonnull align 4 dereferenceable(4) %7)
  %30 = load i32, ptr %29, align 4, !tbaa !42
  %31 = zext i32 %30 to i64
  %32 = call noundef nonnull align 8 dereferenceable(12) ptr @_ZNSt6vectorIN5boost7archive6detail19basic_iarchive_impl7aobjectESaIS4_EEixEm(ptr noundef nonnull align 8 dereferenceable(24) %28, i64 noundef %31) #16
  %33 = getelementptr inbounds nuw %"struct.boost::archive::detail::basic_iarchive_impl::aobject", ptr %32, i32 0, i32 0
  %34 = load ptr, ptr %33, align 8, !tbaa !49
  %35 = icmp eq ptr %27, %34
  br i1 %35, label %36, label %37

36:                                               ; preds = %26
  br label %42

37:                                               ; preds = %26
  br label %38

38:                                               ; preds = %37
  %39 = call noundef nonnull align 4 dereferenceable(4) ptr @_ZN5boost7archive14object_id_typecvRjEv(ptr noundef nonnull align 4 dereferenceable(4) %7)
  %40 = load i32, ptr %39, align 4, !tbaa !42
  %41 = add i32 %40, 1
  store i32 %41, ptr %39, align 4, !tbaa !42
  br label %22, !llvm.loop !59

42:                                               ; preds = %36, %22
  br label %43

43:                                               ; preds = %103, %42
  %44 = getelementptr inbounds nuw %"class.boost::archive::detail::basic_iarchive_impl", ptr %13, i32 0, i32 3
  %45 = getelementptr inbounds nuw %"struct.boost::archive::detail::basic_iarchive_impl::moveable_objects", ptr %44, i32 0, i32 1
  %46 = call noundef zeroext i1 @_ZNK5boost7archive14object_id_typeltERKS1_(ptr noundef nonnull align 4 dereferenceable(4) %7, ptr noundef nonnull align 4 dereferenceable(4) %45)
  br i1 %46, label %47, label %107

47:                                               ; preds = %43
  call void @llvm.lifetime.start.p0(i64 8, ptr %8) #16
  %48 = getelementptr inbounds nuw %"class.boost::archive::detail::basic_iarchive_impl", ptr %13, i32 0, i32 2
  %49 = call noundef nonnull align 4 dereferenceable(4) ptr @_ZN5boost7archive14object_id_typecvRjEv(ptr noundef nonnull align 4 dereferenceable(4) %7)
  %50 = load i32, ptr %49, align 4, !tbaa !42
  %51 = zext i32 %50 to i64
  %52 = call noundef nonnull align 8 dereferenceable(12) ptr @_ZNSt6vectorIN5boost7archive6detail19basic_iarchive_impl7aobjectESaIS4_EEixEm(ptr noundef nonnull align 8 dereferenceable(24) %48, i64 noundef %51) #16
  store ptr %52, ptr %8, align 8, !tbaa !3
  %53 = load ptr, ptr %8, align 8, !tbaa !3
  %54 = getelementptr inbounds nuw %"struct.boost::archive::detail::basic_iarchive_impl::aobject", ptr %53, i32 0, i32 1
  %55 = load i8, ptr %54, align 8, !tbaa !61, !range !13, !noundef !14
  %56 = trunc i8 %55 to i1
  br i1 %56, label %57, label %58

57:                                               ; preds = %47
  store i32 7, ptr %9, align 4
  br label %100

58:                                               ; preds = %47
  call void @llvm.lifetime.start.p0(i64 8, ptr %10) #16
  %59 = load ptr, ptr %8, align 8, !tbaa !3
  %60 = getelementptr inbounds nuw %"struct.boost::archive::detail::basic_iarchive_impl::aobject", ptr %59, i32 0, i32 0
  %61 = load ptr, ptr %60, align 8, !tbaa !49
  store ptr %61, ptr %10, align 8, !tbaa !3
  %62 = load ptr, ptr %10, align 8, !tbaa !3
  %63 = load ptr, ptr %6, align 8, !tbaa !3
  %64 = icmp ugt ptr %62, %63
  br i1 %64, label %65, label %82

65:                                               ; preds = %58
  call void @llvm.lifetime.start.p0(i64 8, ptr %11) #16
  %66 = load ptr, ptr %10, align 8, !tbaa !3
  %67 = ptrtoint ptr %66 to i64
  %68 = load ptr, ptr %6, align 8, !tbaa !3
  %69 = ptrtoint ptr %68 to i64
  %70 = sub i64 %67, %69
  store i64 %70, ptr %11, align 8, !tbaa !48
  %71 = load ptr, ptr %5, align 8, !tbaa !3
  %72 = ptrtoint ptr %71 to i64
  %73 = load i64, ptr %11, align 8, !tbaa !48
  %74 = add i64 %72, %73
  %75 = inttoptr i64 %74 to ptr
  %76 = getelementptr inbounds nuw %"class.boost::archive::detail::basic_iarchive_impl", ptr %13, i32 0, i32 2
  %77 = call noundef nonnull align 4 dereferenceable(4) ptr @_ZN5boost7archive14object_id_typecvRjEv(ptr noundef nonnull align 4 dereferenceable(4) %7)
  %78 = load i32, ptr %77, align 4, !tbaa !42
  %79 = zext i32 %78 to i64
  %80 = call noundef nonnull align 8 dereferenceable(12) ptr @_ZNSt6vectorIN5boost7archive6detail19basic_iarchive_impl7aobjectESaIS4_EEixEm(ptr noundef nonnull align 8 dereferenceable(24) %76, i64 noundef %79) #16
  %81 = getelementptr inbounds nuw %"struct.boost::archive::detail::basic_iarchive_impl::aobject", ptr %80, i32 0, i32 0
  store ptr %75, ptr %81, align 8, !tbaa !49
  call void @llvm.lifetime.end.p0(i64 8, ptr %11) #16
  br label %99

82:                                               ; preds = %58
  call void @llvm.lifetime.start.p0(i64 8, ptr %12) #16
  %83 = load ptr, ptr %6, align 8, !tbaa !3
  %84 = ptrtoint ptr %83 to i64
  %85 = load ptr, ptr %10, align 8, !tbaa !3
  %86 = ptrtoint ptr %85 to i64
  %87 = sub i64 %84, %86
  store i64 %87, ptr %12, align 8, !tbaa !48
  %88 = load ptr, ptr %5, align 8, !tbaa !3
  %89 = ptrtoint ptr %88 to i64
  %90 = load i64, ptr %12, align 8, !tbaa !48
  %91 = sub i64 %89, %90
  %92 = inttoptr i64 %91 to ptr
  %93 = getelementptr inbounds nuw %"class.boost::archive::detail::basic_iarchive_impl", ptr %13, i32 0, i32 2
  %94 = call noundef nonnull align 4 dereferenceable(4) ptr @_ZN5boost7archive14object_id_typecvRjEv(ptr noundef nonnull align 4 dereferenceable(4) %7)
  %95 = load i32, ptr %94, align 4, !tbaa !42
  %96 = zext i32 %95 to i64
  %97 = call noundef nonnull align 8 dereferenceable(12) ptr @_ZNSt6vectorIN5boost7archive6detail19basic_iarchive_impl7aobjectESaIS4_EEixEm(ptr noundef nonnull align 8 dereferenceable(24) %93, i64 noundef %96) #16
  %98 = getelementptr inbounds nuw %"struct.boost::archive::detail::basic_iarchive_impl::aobject", ptr %97, i32 0, i32 0
  store ptr %92, ptr %98, align 8, !tbaa !49
  call void @llvm.lifetime.end.p0(i64 8, ptr %12) #16
  br label %99

99:                                               ; preds = %82, %65
  call void @llvm.lifetime.end.p0(i64 8, ptr %10) #16
  store i32 0, ptr %9, align 4
  br label %100

100:                                              ; preds = %99, %57
  call void @llvm.lifetime.end.p0(i64 8, ptr %8) #16
  %101 = load i32, ptr %9, align 4
  switch i32 %101, label %109 [
    i32 0, label %102
    i32 7, label %103
  ]

102:                                              ; preds = %100
  br label %103

103:                                              ; preds = %102, %100
  %104 = call noundef nonnull align 4 dereferenceable(4) ptr @_ZN5boost7archive14object_id_typecvRjEv(ptr noundef nonnull align 4 dereferenceable(4) %7)
  %105 = load i32, ptr %104, align 4, !tbaa !42
  %106 = add i32 %105, 1
  store i32 %106, ptr %104, align 4, !tbaa !42
  br label %43, !llvm.loop !62

107:                                              ; preds = %43
  call void @llvm.lifetime.end.p0(i64 4, ptr %7) #16
  br label %108

108:                                              ; preds = %107, %18
  ret void

109:                                              ; preds = %100
  unreachable
}

; Function Attrs: mustprogress nounwind uwtable
define linkonce_odr hidden noundef ptr @_ZNK5boost10scoped_ptrINS_7archive6detail19basic_iarchive_implEEptEv(ptr noundef nonnull align 8 dereferenceable(8) %0) #2 comdat align 2 {
  %2 = alloca ptr, align 8
  store ptr %0, ptr %2, align 8, !tbaa !3
  %3 = load ptr, ptr %2, align 8
  %4 = getelementptr inbounds nuw %"class.boost::scoped_ptr", ptr %3, i32 0, i32 0
  %5 = load ptr, ptr %4, align 8, !tbaa !54
  ret ptr %5
}

; Function Attrs: mustprogress uwtable
define void @_ZN5boost7archive6detail14basic_iarchive20reset_object_addressEPKvS4_(ptr noundef nonnull align 8 dereferenceable(40) %0, ptr noundef %1, ptr noundef %2) #0 align 2 {
  %4 = alloca ptr, align 8
  %5 = alloca ptr, align 8
  %6 = alloca ptr, align 8
  store ptr %0, ptr %4, align 8, !tbaa !3
  store ptr %1, ptr %5, align 8, !tbaa !3
  store ptr %2, ptr %6, align 8, !tbaa !3
  %7 = load ptr, ptr %4, align 8
  %8 = getelementptr inbounds nuw %"class.boost::archive::detail::basic_iarchive", ptr %7, i32 0, i32 2
  %9 = call noundef ptr @_ZNK5boost10scoped_ptrINS_7archive6detail19basic_iarchive_implEEptEv(ptr noundef nonnull align 8 dereferenceable(8) %8) #16
  %10 = load ptr, ptr %5, align 8, !tbaa !3
  %11 = load ptr, ptr %6, align 8, !tbaa !3
  call void @_ZN5boost7archive6detail19basic_iarchive_impl20reset_object_addressEPKvS4_(ptr noundef nonnull align 8 dereferenceable(144) %9, ptr noundef %10, ptr noundef %11)
  ret void
}