; Function Attrs: mustprogress nofree norecurse nosync nounwind memory(readwrite, inaccessiblemem: none) uwtable
define void @_ZN5boost7archive6detail14basic_iarchive20reset_object_addressEPKvS4_(ptr nocapture noundef nonnull readonly align 8 dereferenceable(40) %0, ptr noundef %1, ptr noundef %2) local_unnamed_addr #8 align 2 {
  %4 = getelementptr inbounds nuw i8, ptr %0, i64 32
  %5 = load ptr, ptr %4, align 8, !tbaa !52
  %6 = getelementptr inbounds nuw i8, ptr %5, i64 44
  %7 = load i8, ptr %6, align 4, !tbaa !71, !range !12, !noundef !13
  %8 = trunc nuw i8 %7 to i1
  br i1 %8, label %_ZN5boost7archive6detail19basic_iarchive_impl20reset_object_addressEPKvS4_.exit, label %9

9:                                                ; preds = %3
  %10 = getelementptr inbounds nuw i8, ptr %5, i64 40
  %11 = load i32, ptr %10, align 4, !tbaa !45
  %12 = getelementptr inbounds nuw i8, ptr %5, i64 36
  %13 = load i32, ptr %12, align 4, !tbaa !45
  %14 = icmp ult i32 %11, %13
  br i1 %14, label %.lr.ph.i, label %._crit_edge.i

.lr.ph.i:                                         ; preds = %9
  %15 = getelementptr inbounds nuw i8, ptr %5, i64 8
  %16 = load ptr, ptr %15, align 8, !tbaa !47
  %17 = zext i32 %11 to i64
  %wide.trip.count.i = zext i32 %13 to i64
  br label %18

18:                                               ; preds = %22, %.lr.ph.i
  %indvars.iv.i = phi i64 [ %17, %.lr.ph.i ], [ %indvars.iv.next.i, %22 ]
  %19 = getelementptr inbounds nuw %"struct.boost::archive::detail::basic_iarchive_impl::aobject", ptr %16, i64 %indvars.iv.i
  %20 = load ptr, ptr %19, align 8, !tbaa !49
  %21 = icmp eq ptr %2, %20
  br i1 %21, label %._crit_edge.loopexit.i, label %22

22:                                               ; preds = %18
  %indvars.iv.next.i = add nuw nsw i64 %indvars.iv.i, 1
  %exitcond.not.i = icmp eq i64 %indvars.iv.next.i, %wide.trip.count.i
  br i1 %exitcond.not.i, label %_ZN5boost7archive6detail19basic_iarchive_impl20reset_object_addressEPKvS4_.exit, label %18, !llvm.loop !72

._crit_edge.loopexit.i:                           ; preds = %18
  %23 = trunc nuw i64 %indvars.iv.i to i32
  br label %._crit_edge.i

._crit_edge.i:                                    ; preds = %._crit_edge.loopexit.i, %9
  %.sroa.0.0.lcssa.i = phi i32 [ %11, %9 ], [ %23, %._crit_edge.loopexit.i ]
  %24 = icmp ult i32 %.sroa.0.0.lcssa.i, %13
  br i1 %24, label %.lr.ph31.i, label %_ZN5boost7archive6detail19basic_iarchive_impl20reset_object_addressEPKvS4_.exit

.lr.ph31.i:                                       ; preds = %._crit_edge.i
  %25 = getelementptr inbounds nuw i8, ptr %5, i64 8
  %26 = load ptr, ptr %25, align 8, !tbaa !47
  %27 = ptrtoint ptr %2 to i64
  %28 = ptrtoint ptr %1 to i64
  %.neg.i = sub i64 %28, %27
  %29 = zext i32 %.sroa.0.0.lcssa.i to i64
  %wide.trip.count36.i = zext i32 %13 to i64
  br label %30

30:                                               ; preds = %40, %.lr.ph31.i
  %indvars.iv33.i = phi i64 [ %29, %.lr.ph31.i ], [ %indvars.iv.next34.i, %40 ]
  %31 = getelementptr inbounds nuw %"struct.boost::archive::detail::basic_iarchive_impl::aobject", ptr %26, i64 %indvars.iv33.i
  %32 = getelementptr inbounds nuw i8, ptr %31, i64 8
  %33 = load i8, ptr %32, align 8, !tbaa !73, !range !12, !noundef !13
  %34 = trunc nuw i8 %33 to i1
  br i1 %34, label %40, label %35

35:                                               ; preds = %30
  %36 = load ptr, ptr %31, align 8, !tbaa !49
  %37 = ptrtoint ptr %36 to i64
  %38 = add i64 %.neg.i, %37
  %39 = inttoptr i64 %38 to ptr
  store ptr %39, ptr %31, align 8, !tbaa !49
  br label %40

40:                                               ; preds = %35, %30
  %indvars.iv.next34.i = add nuw nsw i64 %indvars.iv33.i, 1
  %exitcond37.not.i = icmp eq i64 %indvars.iv.next34.i, %wide.trip.count36.i
  br i1 %exitcond37.not.i, label %_ZN5boost7archive6detail19basic_iarchive_impl20reset_object_addressEPKvS4_.exit, label %30, !llvm.loop !74

_ZN5boost7archive6detail19basic_iarchive_impl20reset_object_addressEPKvS4_.exit: ; preds = %22, %40, %3, %._crit_edge.i
  ret void
}